target datalayout = "e-m:e-p270:32:32-p271:32:32-p272:64:64-i64:64-i128:128-f80:128-n8:16:32:64-S128"
target triple = "x86_64-pc-linux-gnu"

%struct.AVFormatContext = type { ptr, ptr, ptr, ptr, ptr, i32, i32, ptr, i32, ptr, i32, ptr, ptr, i64, i64, i64, i32, i32, i32, i64, i64, ptr, i32, i32, ptr, i32, i32, i32, i32, ptr, i64, i32, i32, %struct.AVIOInterruptCB, i32, i32, i32, i32, i64, i32, i32, i32, i32, i32, i32, i32, i32, i32, i32, i32, i32, i64, i32, i32, i32, i32, i32, ptr, ptr, ptr, ptr, i32, ptr, ptr, ptr, ptr, i32, ptr, ptr, i64, ptr, ptr, ptr, i64 }
%struct.AVIOInterruptCB = type { ptr, ptr }
%struct.AVDictionaryEntry = type { ptr, ptr }

@.str = private unnamed_addr constant [9 x i8] c"APETAGEX\00", align 1
@.str.6 = private unnamed_addr constant [32 x i8] c"Non ASCII keys are not allowed\0A\00", align 1

; Function Attrs: nounwind uwtable
define internal i32 @string_is_ascii(ptr noundef %0) #0 {
  %2 = alloca ptr, align 8
  store ptr %0, ptr %2, align 8, !tbaa !46
  br label %3

3:                                                ; preds = %20, %1
  %4 = load ptr, ptr %2, align 8, !tbaa !46
  %5 = load i8, ptr %4, align 1, !tbaa !31
  %6 = zext i8 %5 to i32
  %7 = icmp ne i32 %6, 0
  br i1 %7, label %8, label %18

8:                                                ; preds = %3
  %9 = load ptr, ptr %2, align 8, !tbaa !46
  %10 = load i8, ptr %9, align 1, !tbaa !31
  %11 = zext i8 %10 to i32
  %12 = icmp sge i32 %11, 32
  br i1 %12, label %13, label %18

13:                                               ; preds = %8
  %14 = load ptr, ptr %2, align 8, !tbaa !46
  %15 = load i8, ptr %14, align 1, !tbaa !31
  %16 = zext i8 %15 to i32
  %17 = icmp sle i32 %16, 126
  br label %18

18:                                               ; preds = %13, %8, %3
  %19 = phi i1 [ false, %8 ], [ false, %3 ], [ %17, %13 ]
  br i1 %19, label %20, label %23

20:                                               ; preds = %18
  %21 = load ptr, ptr %2, align 8, !tbaa !46
  %22 = getelementptr inbounds nuw i8, ptr %21, i32 1
  store ptr %22, ptr %2, align 8, !tbaa !46
  br label %3, !llvm.loop !54

23:                                               ; preds = %18
  %24 = load ptr, ptr %2, align 8, !tbaa !46
  %25 = load i8, ptr %24, align 1, !tbaa !31
  %26 = icmp ne i8 %25, 0
  %27 = xor i1 %26, true
  %28 = zext i1 %27 to i32
  ret i32 %28
}

; Function Attrs: nounwind uwtable
define i32 @ff_ape_write_tag(ptr noundef %0) #0 {
  %2 = alloca i32, align 4
  %3 = alloca ptr, align 8
  %4 = alloca ptr, align 8
  %5 = alloca i32, align 4
  %6 = alloca i32, align 4
  %7 = alloca i32, align 4
  %8 = alloca ptr, align 8
  %9 = alloca ptr, align 8
  %10 = alloca i32, align 4
  %11 = alloca i32, align 4
  store ptr %0, ptr %3, align 8, !tbaa !4
  call void @llvm.lifetime.start.p0(i64 8, ptr %4) #4
  store ptr null, ptr %4, align 8, !tbaa !47
  call void @llvm.lifetime.start.p0(i64 4, ptr %5) #4
  call void @llvm.lifetime.start.p0(i64 4, ptr %6) #4
  call void @llvm.lifetime.start.p0(i64 4, ptr %7) #4
  store i32 0, ptr %7, align 4, !tbaa !28
  call void @llvm.lifetime.start.p0(i64 8, ptr %8) #4
  call void @llvm.lifetime.start.p0(i64 8, ptr %9) #4
  %12 = call i32 @avio_open_dyn_buf(ptr noundef %8)
  store i32 %12, ptr %6, align 4, !tbaa !28
  %13 = icmp slt i32 %12, 0
  br i1 %13, label %14, label %16

14:                                               ; preds = %1
  %15 = load i32, ptr %6, align 4, !tbaa !28
  store i32 %15, ptr %2, align 4
  store i32 1, ptr %10, align 4
  br label %119

16:                                               ; preds = %1
  %17 = load ptr, ptr %3, align 8, !tbaa !4
  %18 = call i32 @ff_standardize_creation_time(ptr noundef %17)
  br label %19

19:                                               ; preds = %57, %55, %16
  %20 = load ptr, ptr %3, align 8, !tbaa !4
  %21 = getelementptr inbounds nuw %struct.AVFormatContext, ptr %20, i32 0, i32 29
  %22 = load ptr, ptr %21, align 8, !tbaa !49
  %23 = load ptr, ptr %4, align 8, !tbaa !47
  %24 = call ptr @av_dict_iterate(ptr noundef %22, ptr noundef %23)
  store ptr %24, ptr %4, align 8, !tbaa !47
  %25 = icmp ne ptr %24, null
  br i1 %25, label %26, label %58

26:                                               ; preds = %19
  call void @llvm.lifetime.start.p0(i64 4, ptr %11) #4
  %27 = load ptr, ptr %4, align 8, !tbaa !47
  %28 = getelementptr inbounds nuw %struct.AVDictionaryEntry, ptr %27, i32 0, i32 0
  %29 = load ptr, ptr %28, align 8, !tbaa !50
  %30 = call i32 @string_is_ascii(ptr noundef %29)
  %31 = icmp ne i32 %30, 0
  br i1 %31, label %34, label %32

32:                                               ; preds = %26
  %33 = load ptr, ptr %3, align 8, !tbaa !4
  call void (ptr, i32, ptr, ...) @av_log(ptr noundef %33, i32 noundef 24, ptr noundef @.str.6)
  store i32 2, ptr %10, align 4
  br label %55, !llvm.loop !52

34:                                               ; preds = %26
  %35 = load ptr, ptr %4, align 8, !tbaa !47
  %36 = getelementptr inbounds nuw %struct.AVDictionaryEntry, ptr %35, i32 0, i32 1
  %37 = load ptr, ptr %36, align 8, !tbaa !53
  %38 = call i64 @strlen(ptr noundef %37) #5
  %39 = trunc i64 %38 to i32
  store i32 %39, ptr %11, align 4, !tbaa !28
  %40 = load ptr, ptr %8, align 8, !tbaa !26
  %41 = load i32, ptr %11, align 4, !tbaa !28
  call void @avio_wl32(ptr noundef %40, i32 noundef %41)
  %42 = load ptr, ptr %8, align 8, !tbaa !26
  call void @avio_wl32(ptr noundef %42, i32 noundef 0)
  %43 = load ptr, ptr %8, align 8, !tbaa !26
  %44 = load ptr, ptr %4, align 8, !tbaa !47
  %45 = getelementptr inbounds nuw %struct.AVDictionaryEntry, ptr %44, i32 0, i32 0
  %46 = load ptr, ptr %45, align 8, !tbaa !50
  %47 = call i32 @avio_put_str(ptr noundef %43, ptr noundef %46)
  %48 = load ptr, ptr %8, align 8, !tbaa !26
  %49 = load ptr, ptr %4, align 8, !tbaa !47
  %50 = getelementptr inbounds nuw %struct.AVDictionaryEntry, ptr %49, i32 0, i32 1
  %51 = load ptr, ptr %50, align 8, !tbaa !53
  %52 = load i32, ptr %11, align 4, !tbaa !28
  call void @avio_write(ptr noundef %48, ptr noundef %51, i32 noundef %52)
  %53 = load i32, ptr %7, align 4, !tbaa !28
  %54 = add nsw i32 %53, 1
  store i32 %54, ptr %7, align 4, !tbaa !28
  store i32 0, ptr %10, align 4
  br label %55

55:                                               ; preds = %34, %32
  call void @llvm.lifetime.end.p0(i64 4, ptr %11) #4
  %56 = load i32, ptr %10, align 4
  switch i32 %56, label %121 [
    i32 0, label %57
    i32 2, label %19
  ]

57:                                               ; preds = %55
  br label %19, !llvm.loop !52

58:                                               ; preds = %19
  %59 = load i32, ptr %7, align 4, !tbaa !28
  %60 = icmp ne i32 %59, 0
  br i1 %60, label %62, label %61

61:                                               ; preds = %58
  br label %117

62:                                               ; preds = %58
  %63 = load ptr, ptr %8, align 8, !tbaa !26
  %64 = call i32 @avio_get_dyn_buf(ptr noundef %63, ptr noundef %9)
  store i32 %64, ptr %5, align 4, !tbaa !28
  %65 = load i32, ptr %5, align 4, !tbaa !28
  %66 = icmp sle i32 %65, 0
  br i1 %66, label %67, label %68

67:                                               ; preds = %62
  br label %117

68:                                               ; preds = %62
  %69 = load i32, ptr %5, align 4, !tbaa !28
  %70 = add nsw i32 %69, 32
  store i32 %70, ptr %5, align 4, !tbaa !28
  %71 = load ptr, ptr %3, align 8, !tbaa !4
  %72 = getelementptr inbounds nuw %struct.AVFormatContext, ptr %71, i32 0, i32 4
  %73 = load ptr, ptr %72, align 8, !tbaa !9
  call void @avio_write(ptr noundef %73, ptr noundef @.str, i32 noundef 8)
  %74 = load ptr, ptr %3, align 8, !tbaa !4
  %75 = getelementptr inbounds nuw %struct.AVFormatContext, ptr %74, i32 0, i32 4
  %76 = load ptr, ptr %75, align 8, !tbaa !9
  call void @avio_wl32(ptr noundef %76, i32 noundef 2000)
  %77 = load ptr, ptr %3, align 8, !tbaa !4
  %78 = getelementptr inbounds nuw %struct.AVFormatContext, ptr %77, i32 0, i32 4
  %79 = load ptr, ptr %78, align 8, !tbaa !9
  %80 = load i32, ptr %5, align 4, !tbaa !28
  call void @avio_wl32(ptr noundef %79, i32 noundef %80)
  %81 = load ptr, ptr %3, align 8, !tbaa !4
  %82 = getelementptr inbounds nuw %struct.AVFormatContext, ptr %81, i32 0, i32 4
  %83 = load ptr, ptr %82, align 8, !tbaa !9
  %84 = load i32, ptr %7, align 4, !tbaa !28
  call void @avio_wl32(ptr noundef %83, i32 noundef %84)
  %85 = load ptr, ptr %3, align 8, !tbaa !4
  %86 = getelementptr inbounds nuw %struct.AVFormatContext, ptr %85, i32 0, i32 4
  %87 = load ptr, ptr %86, align 8, !tbaa !9
  call void @avio_wl32(ptr noundef %87, i32 noundef -1610612736)
  %88 = load ptr, ptr %3, align 8, !tbaa !4
  %89 = getelementptr inbounds nuw %struct.AVFormatContext, ptr %88, i32 0, i32 4
  %90 = load ptr, ptr %89, align 8, !tbaa !9
  call void @ffio_fill(ptr noundef %90, i32 noundef 0, i64 noundef 8)
  %91 = load ptr, ptr %3, align 8, !tbaa !4
  %92 = getelementptr inbounds nuw %struct.AVFormatContext, ptr %91, i32 0, i32 4
  %93 = load ptr, ptr %92, align 8, !tbaa !9
  %94 = load ptr, ptr %9, align 8, !tbaa !46
  %95 = load i32, ptr %5, align 4, !tbaa !28
  %96 = sub nsw i32 %95, 32
  call void @avio_write(ptr noundef %93, ptr noundef %94, i32 noundef %96)
  %97 = load ptr, ptr %3, align 8, !tbaa !4
  %98 = getelementptr inbounds nuw %struct.AVFormatContext, ptr %97, i32 0, i32 4
  %99 = load ptr, ptr %98, align 8, !tbaa !9
  call void @avio_write(ptr noundef %99, ptr noundef @.str, i32 noundef 8)
  %100 = load ptr, ptr %3, align 8, !tbaa !4
  %101 = getelementptr inbounds nuw %struct.AVFormatContext, ptr %100, i32 0, i32 4
  %102 = load ptr, ptr %101, align 8, !tbaa !9
  call void @avio_wl32(ptr noundef %102, i32 noundef 2000)
  %103 = load ptr, ptr %3, align 8, !tbaa !4
  %104 = getelementptr inbounds nuw %struct.AVFormatContext, ptr %103, i32 0, i32 4
  %105 = load ptr, ptr %104, align 8, !tbaa !9
  %106 = load i32, ptr %5, align 4, !tbaa !28
  call void @avio_wl32(ptr noundef %105, i32 noundef %106)
  %107 = load ptr, ptr %3, align 8, !tbaa !4
  %108 = getelementptr inbounds nuw %struct.AVFormatContext, ptr %107, i32 0, i32 4
  %109 = load ptr, ptr %108, align 8, !tbaa !9
  %110 = load i32, ptr %7, align 4, !tbaa !28
  call void @avio_wl32(ptr noundef %109, i32 noundef %110)
  %111 = load ptr, ptr %3, align 8, !tbaa !4
  %112 = getelementptr inbounds nuw %struct.AVFormatContext, ptr %111, i32 0, i32 4
  %113 = load ptr, ptr %112, align 8, !tbaa !9
  call void @avio_wl32(ptr noundef %113, i32 noundef -2147483648)
  %114 = load ptr, ptr %3, align 8, !tbaa !4
  %115 = getelementptr inbounds nuw %struct.AVFormatContext, ptr %114, i32 0, i32 4
  %116 = load ptr, ptr %115, align 8, !tbaa !9
  call void @ffio_fill(ptr noundef %116, i32 noundef 0, i64 noundef 8)
  br label %117

117:                                              ; preds = %68, %67, %61
  call void @ffio_free_dyn_buf(ptr noundef %8)
  %118 = load i32, ptr %6, align 4, !tbaa !28
  store i32 %118, ptr %2, align 4
  store i32 1, ptr %10, align 4
  br label %119

119:                                              ; preds = %117, %14
  call void @llvm.lifetime.end.p0(i64 8, ptr %9) #4
  call void @llvm.lifetime.end.p0(i64 8, ptr %8) #4
  call void @llvm.lifetime.end.p0(i64 4, ptr %7) #4
  call void @llvm.lifetime.end.p0(i64 4, ptr %6) #4
  call void @llvm.lifetime.end.p0(i64 4, ptr %5) #4
  call void @llvm.lifetime.end.p0(i64 8, ptr %4) #4
  %120 = load i32, ptr %2, align 4
  ret i32 %120

121:                                              ; preds = %55
  unreachable
}