; Function Attrs: nounwind uwtable
define i32 @ff_ape_write_tag(ptr noundef %0) local_unnamed_addr #0 {
  %2 = alloca ptr, align 8
  %3 = alloca ptr, align 8
  call void @llvm.lifetime.start.p0(i64 8, ptr nonnull %2) #5
  call void @llvm.lifetime.start.p0(i64 8, ptr nonnull %3) #5
  %4 = call i32 @avio_open_dyn_buf(ptr noundef nonnull %2) #5
  %5 = icmp slt i32 %4, 0
  br i1 %5, label %55, label %6

6:                                                ; preds = %1
  %7 = call i32 @ff_standardize_creation_time(ptr noundef %0) #5
  %8 = getelementptr inbounds nuw i8, ptr %0, i64 192
  %9 = load ptr, ptr %8, align 8, !tbaa !39
  %10 = call ptr @av_dict_iterate(ptr noundef %9, ptr noundef null) #5
  %.not39 = icmp eq ptr %10, null
  br i1 %.not39, label %._crit_edge.thread, label %.lr.ph

.lr.ph:                                           ; preds = %6, %31
  %11 = phi ptr [ %33, %31 ], [ %10, %6 ]
  %.03440 = phi i32 [ %.1, %31 ], [ 0, %6 ]
  %12 = load ptr, ptr %11, align 8, !tbaa !40
  br label %13

13:                                               ; preds = %13, %.lr.ph
  %.0.i = phi ptr [ %12, %.lr.ph ], [ %16, %13 ]
  %14 = load i8, ptr %.0.i, align 1, !tbaa !24
  %15 = add i8 %14, -32
  %or.cond7.i = icmp ult i8 %15, 95
  %16 = getelementptr inbounds nuw i8, ptr %.0.i, i64 1
  br i1 %or.cond7.i, label %13, label %string_is_ascii.exit, !llvm.loop !42

string_is_ascii.exit:                             ; preds = %13
  %.not6.i.not = icmp eq i8 %14, 0
  br i1 %.not6.i.not, label %18, label %17

17:                                               ; preds = %string_is_ascii.exit
  call void (ptr, i32, ptr, ...) @av_log(ptr noundef nonnull %0, i32 noundef 24, ptr noundef nonnull @.str.6) #5
  br label %31, !llvm.loop !43

18:                                               ; preds = %string_is_ascii.exit
  %19 = getelementptr inbounds nuw i8, ptr %11, i64 8
  %20 = load ptr, ptr %19, align 8, !tbaa !44
  %21 = call i64 @strlen(ptr noundef nonnull dereferenceable(1) %20) #6
  %22 = trunc i64 %21 to i32
  %23 = load ptr, ptr %2, align 8, !tbaa !45
  call void @avio_wl32(ptr noundef %23, i32 noundef %22) #5
  %24 = load ptr, ptr %2, align 8, !tbaa !45
  call void @avio_wl32(ptr noundef %24, i32 noundef 0) #5
  %25 = load ptr, ptr %2, align 8, !tbaa !45
  %26 = load ptr, ptr %11, align 8, !tbaa !40
  %27 = call i32 @avio_put_str(ptr noundef %25, ptr noundef %26) #5
  %28 = load ptr, ptr %2, align 8, !tbaa !45
  %29 = load ptr, ptr %19, align 8, !tbaa !44
  call void @avio_write(ptr noundef %28, ptr noundef %29, i32 noundef %22) #5
  %30 = add nsw i32 %.03440, 1
  br label %31

31:                                               ; preds = %18, %17
  %.1 = phi i32 [ %30, %18 ], [ %.03440, %17 ]
  %32 = load ptr, ptr %8, align 8, !tbaa !39
  %33 = call ptr @av_dict_iterate(ptr noundef %32, ptr noundef nonnull %11) #5
  %.not = icmp eq ptr %33, null
  br i1 %.not, label %._crit_edge, label %.lr.ph

._crit_edge:                                      ; preds = %31
  %.not37 = icmp eq i32 %.1, 0
  br i1 %.not37, label %._crit_edge.thread, label %34

34:                                               ; preds = %._crit_edge
  %35 = load ptr, ptr %2, align 8, !tbaa !45
  %36 = call i32 @avio_get_dyn_buf(ptr noundef %35, ptr noundef nonnull %3) #5
  %37 = icmp slt i32 %36, 1
  br i1 %37, label %._crit_edge.thread, label %38

38:                                               ; preds = %34
  %39 = add nuw nsw i32 %36, 32
  %40 = getelementptr inbounds nuw i8, ptr %0, i64 32
  %41 = load ptr, ptr %40, align 8, !tbaa !4
  call void @avio_write(ptr noundef %41, ptr noundef nonnull @.str, i32 noundef 8) #5
  %42 = load ptr, ptr %40, align 8, !tbaa !4
  call void @avio_wl32(ptr noundef %42, i32 noundef 2000) #5
  %43 = load ptr, ptr %40, align 8, !tbaa !4
  call void @avio_wl32(ptr noundef %43, i32 noundef %39) #5
  %44 = load ptr, ptr %40, align 8, !tbaa !4
  call void @avio_wl32(ptr noundef %44, i32 noundef %.1) #5
  %45 = load ptr, ptr %40, align 8, !tbaa !4
  call void @avio_wl32(ptr noundef %45, i32 noundef -1610612736) #5
  %46 = load ptr, ptr %40, align 8, !tbaa !4
  call void @ffio_fill(ptr noundef %46, i32 noundef 0, i64 noundef 8) #5
  %47 = load ptr, ptr %40, align 8, !tbaa !4
  %48 = load ptr, ptr %3, align 8, !tbaa !46
  call void @avio_write(ptr noundef %47, ptr noundef %48, i32 noundef %36) #5
  %49 = load ptr, ptr %40, align 8, !tbaa !4
  call void @avio_write(ptr noundef %49, ptr noundef nonnull @.str, i32 noundef 8) #5
  %50 = load ptr, ptr %40, align 8, !tbaa !4
  call void @avio_wl32(ptr noundef %50, i32 noundef 2000) #5
  %51 = load ptr, ptr %40, align 8, !tbaa !4
  call void @avio_wl32(ptr noundef %51, i32 noundef %39) #5
  %52 = load ptr, ptr %40, align 8, !tbaa !4
  call void @avio_wl32(ptr noundef %52, i32 noundef %.1) #5
  %53 = load ptr, ptr %40, align 8, !tbaa !4
  call void @avio_wl32(ptr noundef %53, i32 noundef -2147483648) #5
  %54 = load ptr, ptr %40, align 8, !tbaa !4
  call void @ffio_fill(ptr noundef %54, i32 noundef 0, i64 noundef 8) #5
  br label %._crit_edge.thread

._crit_edge.thread:                               ; preds = %6, %34, %._crit_edge, %38
  call void @ffio_free_dyn_buf(ptr noundef nonnull %2) #5
  br label %55

55:                                               ; preds = %1, %._crit_edge.thread
  call void @llvm.lifetime.end.p0(i64 8, ptr nonnull %3) #5
  call void @llvm.lifetime.end.p0(i64 8, ptr nonnull %2) #5
  ret i32 %4
}